target datalayout = "e-m:e-p270:32:32-p271:32:32-p272:64:64-i64:64-i128:128-f80:128-n8:16:32:64-S128"
target triple = "x86_64-unknown-linux-gnu"

%"struct.node::AssertionInfo" = type { ptr, ptr, ptr }
%"class.node::quic::StatelessResetToken" = type { %"class.node::MemoryRetainer", ptr, [16 x i8] }
%"class.node::MemoryRetainer" = type { ptr }
%"class.node::quic::TokenSecret" = type { %"class.node::MemoryRetainer", [16 x i8] }

@_ZZN4node4quic19StatelessResetTokenC1ERKNS0_11TokenSecretERKNS0_3CIDEE4args = internal constant %"struct.node::AssertionInfo" { ptr @.str.6, ptr @.str.7, ptr @.str.8 }, align 8

; Function Attrs: mustprogress nounwind uwtable
define dso_local noundef ptr @_ZNK4node4quic11TokenSecretcvPKhEv(ptr noundef nonnull align 8 dereferenceable(24) %this) #4 align 2 {
entry:
  %this.addr = alloca ptr, align 8
  store ptr %this, ptr %this.addr, align 8
  %this1 = load ptr, ptr %this.addr, align 8
  %buf_ = getelementptr inbounds %"class.node::quic::TokenSecret", ptr %this1, i32 0, i32 1
  %arraydecay = getelementptr inbounds [16 x i8], ptr %buf_, i64 0, i64 0
  ret ptr %arraydecay
}

; Function Attrs: mustprogress nounwind uwtable
define linkonce_odr dso_local void @_ZN4node14MemoryRetainerC2Ev(ptr noundef nonnull align 8 dereferenceable(8) %this) unnamed_addr #4 comdat align 2 {
entry:
  %this.addr = alloca ptr, align 8
  store ptr %this, ptr %this.addr, align 8
  %this1 = load ptr, ptr %this.addr, align 8
  store ptr getelementptr inbounds ({ [10 x ptr] }, ptr @_ZTVN4node14MemoryRetainerE, i32 0, i32 0, i32 2), ptr %this1, align 8
  ret void
}

; Function Attrs: mustprogress nounwind uwtable
define dso_local void @_ZN4node4quic19StatelessResetTokenC2ERKNS0_11TokenSecretERKNS0_3CIDE(ptr noundef nonnull align 8 dereferenceable(32) %this, ptr noundef nonnull align 8 dereferenceable(24) %secret, ptr noundef nonnull align 8 dereferenceable(48) %cid) unnamed_addr #4 align 2 {
entry:
  %this.addr = alloca ptr, align 8
  %secret.addr = alloca ptr, align 8
  %cid.addr = alloca ptr, align 8
  store ptr %this, ptr %this.addr, align 8
  store ptr %secret, ptr %secret.addr, align 8
  store ptr %cid, ptr %cid.addr, align 8
  %this1 = load ptr, ptr %this.addr, align 8
  call void @_ZN4node14MemoryRetainerC2Ev(ptr noundef nonnull align 8 dereferenceable(8) %this1) #3
  store ptr getelementptr inbounds ({ [10 x ptr] }, ptr @_ZTVN4node4quic19StatelessResetTokenE, i32 0, i32 0, i32 2), ptr %this1, align 8
  %ptr_ = getelementptr inbounds %"class.node::quic::StatelessResetToken", ptr %this1, i32 0, i32 1
  %buf_ = getelementptr inbounds %"class.node::quic::StatelessResetToken", ptr %this1, i32 0, i32 2
  %arraydecay = getelementptr inbounds [16 x i8], ptr %buf_, i64 0, i64 0
  store ptr %arraydecay, ptr %ptr_, align 8
  br label %do.body

do.body:                                          ; preds = %entry
  %buf_2 = getelementptr inbounds %"class.node::quic::StatelessResetToken", ptr %this1, i32 0, i32 2
  %arraydecay3 = getelementptr inbounds [16 x i8], ptr %buf_2, i64 0, i64 0
  %0 = load ptr, ptr %secret.addr, align 8
  %call = call noundef ptr @_ZNK4node4quic11TokenSecretcvPKhEv(ptr noundef nonnull align 8 dereferenceable(24) %0)
  %1 = load ptr, ptr %cid.addr, align 8
  %call4 = call noundef ptr @_ZNK4node4quic3CIDcvPK10ngtcp2_cidEv(ptr noundef nonnull align 8 dereferenceable(48) %1)
  %call5 = call i32 @ngtcp2_crypto_generate_stateless_reset_token(ptr noundef %arraydecay3, ptr noundef %call, i64 noundef 16, ptr noundef %call4)
  %cmp = icmp eq i32 %call5, 0
  %lnot = xor i1 %cmp, true
  %lnot6 = xor i1 %lnot, true
  %lnot7 = xor i1 %lnot6, true
  br i1 %lnot7, label %if.then, label %if.end

if.then:                                          ; preds = %do.body
  br label %do.body8

do.body8:                                         ; preds = %if.then
  call void @_ZN4node6AssertERKNS_13AssertionInfoE(ptr noundef nonnull align 8 dereferenceable(24) @_ZZN4node4quic19StatelessResetTokenC1ERKNS0_11TokenSecretERKNS0_3CIDEE4args)
  call void @abort() #11
  unreachable

do.end:                                           ; No predecessors!
  br label %if.end

if.end:                                           ; preds = %do.end, %do.body
  br label %do.end9

do.end9:                                          ; preds = %if.end
  ret void
}