; Function Attrs: mustprogress nounwind uwtable
define dso_local void @_ZN4node4quic19StatelessResetTokenC2ERKNS0_11TokenSecretERKNS0_3CIDE(ptr noundef nonnull align 8 dereferenceable(32) %this, ptr noundef nonnull align 8 dereferenceable(24) %secret, ptr noundef nonnull align 8 dereferenceable(48) %cid) unnamed_addr #3 align 2 {
entry:
  store ptr getelementptr inbounds ({ [10 x ptr] }, ptr @_ZTVN4node4quic19StatelessResetTokenE, i64 0, i32 0, i64 2), ptr %this, align 8
  %ptr_ = getelementptr inbounds i8, ptr %this, i64 8
  %buf_ = getelementptr inbounds i8, ptr %this, i64 16
  store ptr %buf_, ptr %ptr_, align 8
  %buf_.i = getelementptr inbounds i8, ptr %secret, i64 8
  %call4 = tail call noundef ptr @_ZNK4node4quic3CIDcvPK10ngtcp2_cidEv(ptr noundef nonnull align 8 dereferenceable(48) %cid) #17
  %call5 = tail call i32 @ngtcp2_crypto_generate_stateless_reset_token(ptr noundef nonnull %buf_, ptr noundef nonnull %buf_.i, i64 noundef 16, ptr noundef %call4) #17
  %cmp.not = icmp eq i32 %call5, 0
  br i1 %cmp.not, label %do.end9, label %do.body8

do.body8:                                         ; preds = %entry
  tail call void @_ZN4node6AssertERKNS_13AssertionInfoE(ptr noundef nonnull align 8 dereferenceable(24) @_ZZN4node4quic19StatelessResetTokenC1ERKNS0_11TokenSecretERKNS0_3CIDEE4args) #17
  tail call void @abort() #18
  unreachable

do.end9:                                          ; preds = %entry
  ret void
}